; Function Attrs: mustprogress uwtable
define hidden noundef i64 @_ZN6Assimp16CIOStreamWrapper5WriteEPKvmm(ptr nocapture noundef nonnull readonly align 8 dereferenceable(24) %this, ptr noundef %pvBuffer, i64 noundef %pSize, i64 noundef %pCount) unnamed_addr #4 align 2 {
entry:
  %mFile = getelementptr inbounds i8, ptr %this, i64 8
  %0 = load ptr, ptr %mFile, align 8
  %WriteProc = getelementptr inbounds i8, ptr %0, i64 8
  %1 = load ptr, ptr %WriteProc, align 8
  %call = tail call noundef i64 %1(ptr noundef %0, ptr noundef %pvBuffer, i64 noundef %pSize, i64 noundef %pCount)
  ret i64 %call
}